; Function Attrs: mustprogress uwtable
define hidden noundef zeroext i1 @_ZNK7datalog11check_table13contains_factERK7svectorImjE(ptr nocapture noundef nonnull readonly align 8 dereferenceable(56) %this, ptr noundef nonnull align 8 dereferenceable(8) %f) unnamed_addr #3 align 2 {
entry:
  %m_checker = getelementptr inbounds i8, ptr %this, i64 40
  %0 = load ptr, ptr %m_checker, align 8
  %vtable = load ptr, ptr %0, align 8
  %vfn = getelementptr inbounds i8, ptr %vtable, i64 56
  %1 = load ptr, ptr %vfn, align 8
  %call = tail call noundef zeroext i1 %1(ptr noundef nonnull align 8 dereferenceable(36) %0, ptr noundef nonnull align 8 dereferenceable(8) %f)
  ret i1 %call
}